; Function Attrs: null_pointer_is_valid sspstrong uwtable
define internal i32 @dissect_ipopt_ext_security(ptr noundef %0, ptr noundef %1, ptr noundef %2, ptr readnone captures(none) %3) #1 {
  %5 = alloca ptr, align 8
  call void @llvm.lifetime.start.p0(i64 8, ptr nonnull %5) #9
  %6 = tail call i32 @tvb_reported_length(ptr noundef %0)
  %7 = load i32, ptr @proto_ip_option_ext_security, align 4
  %8 = load i32, ptr @ett_ip_option_ext_security, align 4
  %9 = call fastcc ptr @ip_var_option_header(ptr noundef %2, ptr noundef %1, ptr noundef %0, i32 noundef %7, i32 noundef %8, ptr noundef nonnull %5, i32 noundef %6)
  %10 = load i32, ptr @hf_ip_opt_ext_sec_add_sec_info_format_code, align 4
  %11 = tail call ptr @proto_tree_add_item(ptr noundef %9, i32 noundef %10, ptr noundef %0, i32 noundef 2, i32 noundef 1, i32 noundef 0)
  %12 = add i32 %6, -3
  %13 = icmp sgt i32 %12, 0
  br i1 %13, label %14, label %17

14:                                               ; preds = %4
  %15 = load i32, ptr @hf_ip_opt_ext_sec_add_sec_info, align 4
  %16 = tail call ptr @proto_tree_add_item(ptr noundef %9, i32 noundef %15, ptr noundef %0, i32 noundef 3, i32 noundef %12, i32 noundef 0)
  br label %17

17:                                               ; preds = %14, %4
  %18 = tail call i32 @tvb_captured_length(ptr noundef %0)
  call void @llvm.lifetime.end.p0(i64 8, ptr nonnull %5) #9
  ret i32 %18
}